target datalayout = "e-m:e-p270:32:32-p271:32:32-p272:64:64-i64:64-i128:128-f80:128-n8:16:32:64-S128"
target triple = "x86_64-pc-linux-gnu"

%"class.std::__cxx11::basic_string" = type { %"struct.std::__cxx11::basic_string<char>::_Alloc_hider", i64, %union.anon }
%"struct.std::__cxx11::basic_string<char>::_Alloc_hider" = type { ptr }
%union.anon = type { i64, [8 x i8] }

@_ZN12_GLOBAL__N_123InstrProfSectNamePrefixE = internal global [13 x ptr] [ptr @.str.59, ptr @.str.59, ptr @.str.59, ptr @.str.59, ptr @.str.59, ptr @.str.59, ptr @.str.59, ptr @.str.59, ptr @.str.60, ptr @.str.60, ptr @.str.59, ptr @.str.60, ptr @.str.60], align 16
@_ZN12_GLOBAL__N_121InstrProfSectNameCoffE = internal global [13 x ptr] [ptr @.str.61, ptr @.str.62, ptr @.str.63, ptr @.str.64, ptr @.str.65, ptr @.str.66, ptr @.str.67, ptr @.str.68, ptr @.str.69, ptr @.str.70, ptr @.str.71, ptr @.str.72, ptr @.str.73], align 16
@_ZN12_GLOBAL__N_123InstrProfSectNameCommonE = internal global [13 x ptr] [ptr @.str.74, ptr @.str.75, ptr @.str.76, ptr @.str.77, ptr @.str.78, ptr @.str.79, ptr @.str.80, ptr @.str.81, ptr @.str.82, ptr @.str.83, ptr @.str.84, ptr @.str.85, ptr @.str.86], align 16
@.str.14 = private unnamed_addr constant [22 x i8] c",regular,live_support\00", align 1

; Function Attrs: mustprogress nounwind uwtable
define dso_local void @_ZN4llvm23getInstrProfSectionNameB5cxx11ENS_17InstrProfSectKindENS_6Triple16ObjectFormatTypeEb(ptr dead_on_unwind noalias writable sret(%"class.std::__cxx11::basic_string") align 8 %0, i32 noundef %1, i32 noundef %2, i1 noundef zeroext %3) #1 {
  %5 = alloca ptr, align 8
  %6 = alloca i32, align 4
  %7 = alloca i32, align 4
  %8 = alloca i8, align 1
  %9 = alloca i1, align 1
  store ptr %0, ptr %5, align 8
  store i32 %1, ptr %6, align 4
  store i32 %2, ptr %7, align 4
  %10 = zext i1 %3 to i8
  store i8 %10, ptr %8, align 1
  store i1 false, ptr %9, align 1
  call void @_ZNSt7__cxx1112basic_stringIcSt11char_traitsIcESaIcEEC1Ev(ptr noundef nonnull align 8 dereferenceable(32) %0) #2
  %11 = load i32, ptr %7, align 4
  %12 = icmp eq i32 %11, 5
  br i1 %12, label %13, label %22

13:                                               ; preds = %4
  %14 = load i8, ptr %8, align 1
  %15 = trunc i8 %14 to i1
  br i1 %15, label %16, label %22

16:                                               ; preds = %13
  %17 = load i32, ptr %6, align 4
  %18 = zext i32 %17 to i64
  %19 = getelementptr inbounds [13 x ptr], ptr @_ZN12_GLOBAL__N_123InstrProfSectNamePrefixE, i64 0, i64 %18
  %20 = load ptr, ptr %19, align 8
  %21 = call noundef nonnull align 8 dereferenceable(32) ptr @_ZNSt7__cxx1112basic_stringIcSt11char_traitsIcESaIcEEaSEPKc(ptr noundef nonnull align 8 dereferenceable(32) %0, ptr noundef %20)
  br label %22

22:                                               ; preds = %16, %13, %4
  %23 = load i32, ptr %7, align 4
  %24 = icmp eq i32 %23, 1
  br i1 %24, label %25, label %31

25:                                               ; preds = %22
  %26 = load i32, ptr %6, align 4
  %27 = zext i32 %26 to i64
  %28 = getelementptr inbounds [13 x ptr], ptr @_ZN12_GLOBAL__N_121InstrProfSectNameCoffE, i64 0, i64 %27
  %29 = load ptr, ptr %28, align 8
  %30 = call noundef nonnull align 8 dereferenceable(32) ptr @_ZNSt7__cxx1112basic_stringIcSt11char_traitsIcESaIcEEpLEPKc(ptr noundef nonnull align 8 dereferenceable(32) %0, ptr noundef %29)
  br label %37

31:                                               ; preds = %22
  %32 = load i32, ptr %6, align 4
  %33 = zext i32 %32 to i64
  %34 = getelementptr inbounds [13 x ptr], ptr @_ZN12_GLOBAL__N_123InstrProfSectNameCommonE, i64 0, i64 %33
  %35 = load ptr, ptr %34, align 8
  %36 = call noundef nonnull align 8 dereferenceable(32) ptr @_ZNSt7__cxx1112basic_stringIcSt11char_traitsIcESaIcEEpLEPKc(ptr noundef nonnull align 8 dereferenceable(32) %0, ptr noundef %35)
  br label %37

37:                                               ; preds = %31, %25
  %38 = load i32, ptr %7, align 4
  %39 = icmp eq i32 %38, 5
  br i1 %39, label %40, label %48

40:                                               ; preds = %37
  %41 = load i32, ptr %6, align 4
  %42 = icmp eq i32 %41, 0
  br i1 %42, label %43, label %48

43:                                               ; preds = %40
  %44 = load i8, ptr %8, align 1
  %45 = trunc i8 %44 to i1
  br i1 %45, label %46, label %48

46:                                               ; preds = %43
  %47 = call noundef nonnull align 8 dereferenceable(32) ptr @_ZNSt7__cxx1112basic_stringIcSt11char_traitsIcESaIcEEpLEPKc(ptr noundef nonnull align 8 dereferenceable(32) %0, ptr noundef @.str.14)
  br label %48

48:                                               ; preds = %46, %43, %40, %37
  store i1 true, ptr %9, align 1
  %49 = load i1, ptr %9, align 1
  br i1 %49, label %51, label %50

50:                                               ; preds = %48
  call void @_ZNSt7__cxx1112basic_stringIcSt11char_traitsIcESaIcEED1Ev(ptr noundef nonnull align 8 dereferenceable(32) %0) #2
  br label %51

51:                                               ; preds = %50, %48
  ret void
}