; Function Attrs: mustprogress nounwind uwtable
define dso_local void @_ZN4llvm23getInstrProfSectionNameB5cxx11ENS_17InstrProfSectKindENS_6Triple16ObjectFormatTypeEb(ptr dead_on_unwind noalias nonnull writable sret(%"class.std::__cxx11::basic_string") align 8 %0, i32 noundef %1, i32 noundef %2, i1 noundef zeroext %3) local_unnamed_addr #0 {
  tail call void @_ZNSt7__cxx1112basic_stringIcSt11char_traitsIcESaIcEEC1Ev(ptr noundef nonnull align 8 dereferenceable(32) %0) #28
  %5 = icmp eq i32 %2, 5
  %brmerge.not = and i1 %5, %3
  br i1 %brmerge.not, label %.thread, label %10

.thread:                                          ; preds = %4
  %6 = zext i32 %1 to i64
  %7 = getelementptr inbounds nuw [13 x ptr], ptr @_ZN12_GLOBAL__N_123InstrProfSectNamePrefixE, i64 0, i64 %6
  %8 = load ptr, ptr %7, align 8
  %9 = tail call noundef nonnull align 8 dereferenceable(32) ptr @_ZNSt7__cxx1112basic_stringIcSt11char_traitsIcESaIcEEaSEPKc(ptr noundef nonnull align 8 dereferenceable(32) %0, ptr noundef %8) #28
  br label %._crit_edge

10:                                               ; preds = %4
  %11 = icmp eq i32 %2, 1
  %12 = zext i32 %1 to i64
  br i1 %11, label %.thread13, label %._crit_edge

.thread13:                                        ; preds = %10
  %13 = getelementptr inbounds nuw [13 x ptr], ptr @_ZN12_GLOBAL__N_121InstrProfSectNameCoffE, i64 0, i64 %12
  %14 = load ptr, ptr %13, align 8
  br label %.sink.split

._crit_edge:                                      ; preds = %10, %.thread
  %.pre-phi = phi i64 [ %6, %.thread ], [ %12, %10 ]
  %15 = getelementptr inbounds nuw [13 x ptr], ptr @_ZN12_GLOBAL__N_123InstrProfSectNameCommonE, i64 0, i64 %.pre-phi
  %16 = load ptr, ptr %15, align 8
  %17 = tail call noundef nonnull align 8 dereferenceable(32) ptr @_ZNSt7__cxx1112basic_stringIcSt11char_traitsIcESaIcEEpLEPKc(ptr noundef nonnull align 8 dereferenceable(32) %0, ptr noundef %16) #28
  %18 = icmp eq i32 %1, 0
  %or.cond = and i1 %18, %5
  %brmerge12.demorgan = and i1 %3, %or.cond
  br i1 %brmerge12.demorgan, label %.sink.split, label %20

.sink.split:                                      ; preds = %._crit_edge, %.thread13
  %.sink = phi ptr [ %14, %.thread13 ], [ @.str.14, %._crit_edge ]
  %19 = tail call noundef nonnull align 8 dereferenceable(32) ptr @_ZNSt7__cxx1112basic_stringIcSt11char_traitsIcESaIcEEpLEPKc(ptr noundef nonnull align 8 dereferenceable(32) %0, ptr noundef %.sink) #28
  br label %20

20:                                               ; preds = %.sink.split, %._crit_edge
  ret void
}